; Function Attrs: mustprogress nofree norecurse nosync nounwind willreturn memory(read, argmem: readwrite, inaccessiblemem: none) uwtable
define hidden range(i32 -100, 1) i32 @mbedtls_asn1_get_len(ptr noundef captures(none) %0, ptr noundef %1, ptr noundef writeonly captures(none) %2) local_unnamed_addr #0 {
  %4 = load ptr, ptr %0, align 8, !tbaa !3
  %5 = ptrtoint ptr %1 to i64
  %6 = ptrtoint ptr %4 to i64
  %7 = sub i64 %5, %6
  %8 = icmp slt i64 %7, 1
  br i1 %8, label %82, label %9

9:                                                ; preds = %3
  %10 = load i8, ptr %4, align 1, !tbaa !8
  %11 = icmp sgt i8 %10, -1
  br i1 %11, label %12, label %16

12:                                               ; preds = %9
  %13 = getelementptr inbounds nuw i8, ptr %4, i64 1
  store ptr %13, ptr %0, align 8, !tbaa !3
  %14 = load i8, ptr %4, align 1, !tbaa !8
  %15 = zext i8 %14 to i64
  store i64 %15, ptr %2, align 8, !tbaa !9
  br label %76

16:                                               ; preds = %9
  %17 = and i8 %10, 127
  switch i8 %17, label %82 [
    i8 1, label %18
    i8 2, label %25
    i8 3, label %37
    i8 4, label %54
  ]

18:                                               ; preds = %16
  %19 = icmp eq i64 %7, 1
  br i1 %19, label %82, label %20

20:                                               ; preds = %18
  %21 = getelementptr inbounds nuw i8, ptr %4, i64 1
  %22 = load i8, ptr %21, align 1, !tbaa !8
  %23 = zext i8 %22 to i64
  store i64 %23, ptr %2, align 8, !tbaa !9
  %24 = getelementptr inbounds nuw i8, ptr %4, i64 2
  store ptr %24, ptr %0, align 8, !tbaa !3
  br label %76

25:                                               ; preds = %16
  %26 = icmp samesign ult i64 %7, 3
  br i1 %26, label %82, label %27

27:                                               ; preds = %25
  %28 = getelementptr inbounds nuw i8, ptr %4, i64 1
  %29 = load i8, ptr %28, align 1, !tbaa !8
  %30 = zext i8 %29 to i64
  %31 = shl nuw nsw i64 %30, 8
  %32 = getelementptr inbounds nuw i8, ptr %4, i64 2
  %33 = load i8, ptr %32, align 1, !tbaa !8
  %34 = zext i8 %33 to i64
  %35 = or disjoint i64 %31, %34
  store i64 %35, ptr %2, align 8, !tbaa !9
  %36 = getelementptr inbounds nuw i8, ptr %4, i64 3
  store ptr %36, ptr %0, align 8, !tbaa !3
  br label %76

37:                                               ; preds = %16
  %38 = icmp samesign ult i64 %7, 4
  br i1 %38, label %82, label %39

39:                                               ; preds = %37
  %40 = getelementptr inbounds nuw i8, ptr %4, i64 1
  %41 = load i8, ptr %40, align 1, !tbaa !8
  %42 = zext i8 %41 to i64
  %43 = shl nuw nsw i64 %42, 16
  %44 = getelementptr inbounds nuw i8, ptr %4, i64 2
  %45 = load i8, ptr %44, align 1, !tbaa !8
  %46 = zext i8 %45 to i64
  %47 = shl nuw nsw i64 %46, 8
  %48 = or disjoint i64 %47, %43
  %49 = getelementptr inbounds nuw i8, ptr %4, i64 3
  %50 = load i8, ptr %49, align 1, !tbaa !8
  %51 = zext i8 %50 to i64
  %52 = or disjoint i64 %48, %51
  store i64 %52, ptr %2, align 8, !tbaa !9
  %53 = getelementptr inbounds nuw i8, ptr %4, i64 4
  store ptr %53, ptr %0, align 8, !tbaa !3
  br label %76

54:                                               ; preds = %16
  %55 = icmp samesign ult i64 %7, 5
  br i1 %55, label %82, label %56

56:                                               ; preds = %54
  %57 = getelementptr inbounds nuw i8, ptr %4, i64 1
  %58 = load i8, ptr %57, align 1, !tbaa !8
  %59 = zext i8 %58 to i64
  %60 = shl nuw nsw i64 %59, 24
  %61 = getelementptr inbounds nuw i8, ptr %4, i64 2
  %62 = load i8, ptr %61, align 1, !tbaa !8
  %63 = zext i8 %62 to i64
  %64 = shl nuw nsw i64 %63, 16
  %65 = or disjoint i64 %64, %60
  %66 = getelementptr inbounds nuw i8, ptr %4, i64 3
  %67 = load i8, ptr %66, align 1, !tbaa !8
  %68 = zext i8 %67 to i64
  %69 = shl nuw nsw i64 %68, 8
  %70 = or disjoint i64 %65, %69
  %71 = getelementptr inbounds nuw i8, ptr %4, i64 4
  %72 = load i8, ptr %71, align 1, !tbaa !8
  %73 = zext i8 %72 to i64
  %74 = or disjoint i64 %70, %73
  store i64 %74, ptr %2, align 8, !tbaa !9
  %75 = getelementptr inbounds nuw i8, ptr %4, i64 5
  store ptr %75, ptr %0, align 8, !tbaa !3
  br label %76

76:                                               ; preds = %20, %27, %39, %56, %12
  %77 = phi ptr [ %24, %20 ], [ %36, %27 ], [ %53, %39 ], [ %75, %56 ], [ %13, %12 ]
  %78 = phi i64 [ %23, %20 ], [ %35, %27 ], [ %52, %39 ], [ %74, %56 ], [ %15, %12 ]
  %79 = ptrtoint ptr %77 to i64
  %80 = sub i64 %5, %79
  %81 = icmp ugt i64 %78, %80
  %. = select i1 %81, i32 -96, i32 0
  br label %82

82:                                               ; preds = %76, %16, %54, %37, %25, %18, %3
  %.0 = phi i32 [ -96, %3 ], [ -96, %18 ], [ -96, %25 ], [ -96, %37 ], [ -96, %54 ], [ -100, %16 ], [ %., %76 ]
  ret i32 %.0
}